target datalayout = "e-m:e-p270:32:32-p271:32:32-p272:64:64-i64:64-i128:128-f80:128-n8:16:32:64-S128"
target triple = "x86_64-pc-linux-gnu"

; Function Attrs: inlinehint mustprogress nounwind uwtable
define linkonce_odr noundef i32 @_ZN7rocksdb9FloorLog2ImEEiT_(i64 noundef %0) #3 comdat {
  %2 = alloca i64, align 8
  %3 = alloca i32, align 4
  store i64 %0, ptr %2, align 8, !tbaa !9
  call void @llvm.lifetime.start.p0(i64 4, ptr %3) #19
  %4 = load i64, ptr %2, align 8, !tbaa !9
  %5 = call i64 @llvm.ctlz.i64(i64 %4, i1 true)
  %6 = trunc i64 %5 to i32
  store i32 %6, ptr %3, align 4, !tbaa !34
  %7 = load i32, ptr %3, align 4, !tbaa !34
  %8 = sub nsw i32 63, %7
  call void @llvm.lifetime.end.p0(i64 4, ptr %3) #19
  ret i32 %8
}

; Function Attrs: mustprogress uwtable
define noundef i32 @_ZN7rocksdb11clock_cache20FixedHyperClockTable12CalcHashBitsEmmNS_25CacheMetadataChargePolicyE(i64 noundef %0, i64 noundef %1, i32 noundef %2) #0 align 2 {
  %4 = alloca i64, align 8
  %5 = alloca i64, align 8
  %6 = alloca i32, align 4
  %7 = alloca double, align 8
  %8 = alloca i64, align 8
  %9 = alloca i32, align 4
  store i64 %0, ptr %4, align 8, !tbaa !9
  store i64 %1, ptr %5, align 8, !tbaa !9
  store i32 %2, ptr %6, align 4, !tbaa !13
  call void @llvm.lifetime.start.p0(i64 8, ptr %7) #19
  %10 = load i64, ptr %5, align 8, !tbaa !9
  %11 = uitofp i64 %10 to double
  %12 = fmul double %11, 0x3FE6666666666666
  store double %12, ptr %7, align 8, !tbaa !153
  %13 = load i32, ptr %6, align 4, !tbaa !13
  %14 = icmp eq i32 %13, 1
  br i1 %14, label %15, label %18

15:                                               ; preds = %3
  %16 = load double, ptr %7, align 8, !tbaa !153
  %17 = fadd double %16, 6.400000e+01
  store double %17, ptr %7, align 8, !tbaa !153
  br label %18

18:                                               ; preds = %15, %3
  call void @llvm.lifetime.start.p0(i64 8, ptr %8) #19
  %19 = load i64, ptr %4, align 8, !tbaa !9
  %20 = uitofp i64 %19 to double
  %21 = load double, ptr %7, align 8, !tbaa !153
  %22 = fdiv double %20, %21
  %23 = fadd double %22, 0x3FEFFFFDE7210BE9
  %24 = fptoui double %23 to i64
  store i64 %24, ptr %8, align 8, !tbaa !9
  call void @llvm.lifetime.start.p0(i64 4, ptr %9) #19
  %25 = load i64, ptr %8, align 8, !tbaa !9
  %26 = shl i64 %25, 1
  %27 = sub i64 %26, 1
  %28 = call noundef i32 @_ZN7rocksdb9FloorLog2ImEEiT_(i64 noundef %27)
  store i32 %28, ptr %9, align 4, !tbaa !34
  %29 = load i32, ptr %6, align 4, !tbaa !13
  %30 = icmp eq i32 %29, 1
  br i1 %30, label %31, label %47

31:                                               ; preds = %18
  br label %32

32:                                               ; preds = %43, %31
  %33 = load i32, ptr %9, align 4, !tbaa !34
  %34 = icmp sgt i32 %33, 0
  br i1 %34, label %35, label %41

35:                                               ; preds = %32
  %36 = load i32, ptr %9, align 4, !tbaa !34
  %37 = zext i32 %36 to i64
  %38 = shl i64 64, %37
  %39 = load i64, ptr %4, align 8, !tbaa !9
  %40 = icmp ugt i64 %38, %39
  br label %41

41:                                               ; preds = %35, %32
  %42 = phi i1 [ false, %32 ], [ %40, %35 ]
  br i1 %42, label %43, label %46

43:                                               ; preds = %41
  %44 = load i32, ptr %9, align 4, !tbaa !34
  %45 = add nsw i32 %44, -1
  store i32 %45, ptr %9, align 4, !tbaa !34
  br label %32, !llvm.loop !155

46:                                               ; preds = %41
  br label %47

47:                                               ; preds = %46, %18
  %48 = load i32, ptr %9, align 4, !tbaa !34
  call void @llvm.lifetime.end.p0(i64 4, ptr %9) #19
  call void @llvm.lifetime.end.p0(i64 8, ptr %8) #19
  call void @llvm.lifetime.end.p0(i64 8, ptr %7) #19
  ret i32 %48
}