; Function Attrs: mustprogress nofree norecurse nosync nounwind willreturn memory(none) uwtable
define noundef range(i32 0, 2147483647) i32 @_ZN7rocksdb11clock_cache20FixedHyperClockTable12CalcHashBitsEmmNS_25CacheMetadataChargePolicyE(i64 noundef %0, i64 noundef %1, i32 noundef %2) local_unnamed_addr #11 align 2 {
  %4 = uitofp i64 %1 to double
  %5 = fmul double %4, 0x3FE6666666666666
  %6 = icmp eq i32 %2, 1
  %7 = fadd double %5, 6.400000e+01
  %spec.select = select i1 %6, double %7, double %5
  %8 = uitofp i64 %0 to double
  %9 = fdiv double %8, %spec.select
  %10 = fadd double %9, 0x3FEFFFFDE7210BE9
  %11 = fptoui double %10 to i64
  %12 = shl i64 %11, 1
  %13 = add i64 %12, -1
  %14 = tail call range(i64 0, 65) i64 @llvm.ctlz.i64(i64 %13, i1 true)
  %15 = trunc nuw nsw i64 %14 to i32
  %16 = xor i32 %15, 63
  br i1 %6, label %.preheader, label %.loopexit

.preheader:                                       ; preds = %3, %.preheader
  %.1 = phi i32 [ %22, %.preheader ], [ %16, %3 ]
  %17 = icmp ne i32 %.1, 0
  %18 = zext nneg i32 %.1 to i64
  %19 = shl i64 64, %18
  %20 = icmp ugt i64 %19, %0
  %21 = select i1 %17, i1 %20, i1 false
  %22 = add nsw i32 %.1, -1
  br i1 %21, label %.preheader, label %.loopexit, !llvm.loop !159

.loopexit:                                        ; preds = %.preheader, %3
  %.0 = phi i32 [ %16, %3 ], [ %.1, %.preheader ]
  ret i32 %.0
}